target datalayout = "e-m:e-p270:32:32-p271:32:32-p272:64:64-i64:64-i128:128-f80:128-n8:16:32:64-S128"
target triple = "x86_64-pc-linux-gnu"

%struct.engine_st = type { ptr, ptr, ptr, ptr, ptr, ptr, ptr, ptr, ptr, ptr, ptr, ptr, ptr, ptr, ptr, ptr, ptr, ptr, ptr, i32, %struct.CRYPTO_REF_COUNT, i32, %struct.crypto_ex_data_st, ptr, ptr, ptr, ptr, ptr }
%struct.CRYPTO_REF_COUNT = type { i32 }
%struct.crypto_ex_data_st = type { ptr, ptr }

@engine_lock_init = global i32 0, align 4
@do_engine_lock_init_ossl_ret_ = global i32 0, align 4
@.str = private unnamed_addr constant [35 x i8] c"../openssl/crypto/engine/eng_lib.c\00", align 1
@__func__.ENGINE_new = private unnamed_addr constant [11 x i8] c"ENGINE_new\00", align 1

; Function Attrs: inlinehint nounwind uwtable
define internal void @CRYPTO_FREE_REF(ptr noundef %0) #3 {
  %2 = alloca ptr, align 8
  store ptr %0, ptr %2, align 8, !tbaa !7
  ret void
}

; Function Attrs: inlinehint nounwind uwtable
define internal i32 @CRYPTO_NEW_REF(ptr noundef %0, i32 noundef %1) #3 {
  %3 = alloca ptr, align 8
  %4 = alloca i32, align 4
  store ptr %0, ptr %3, align 8, !tbaa !7
  store i32 %1, ptr %4, align 4, !tbaa !3
  %5 = load i32, ptr %4, align 4, !tbaa !3
  %6 = load ptr, ptr %3, align 8, !tbaa !7
  %7 = getelementptr inbounds nuw %struct.CRYPTO_REF_COUNT, ptr %6, i32 0, i32 0
  store atomic i32 %5, ptr %7 seq_cst, align 4, !tbaa !11
  ret i32 1
}

; Function Attrs: nounwind uwtable
define ptr @ENGINE_new() #0 {
  %1 = alloca ptr, align 8
  %2 = alloca ptr, align 8
  %3 = alloca i32, align 4
  call void @llvm.lifetime.start.p0(i64 8, ptr %2) #4
  %4 = call i32 @CRYPTO_THREAD_run_once(ptr noundef @engine_lock_init, ptr noundef @do_engine_lock_init_ossl_)
  %5 = icmp ne i32 %4, 0
  br i1 %5, label %6, label %9

6:                                                ; preds = %0
  %7 = load i32, ptr @do_engine_lock_init_ossl_ret_, align 4, !tbaa !3
  %8 = icmp ne i32 %7, 0
  br i1 %8, label %11, label %10

9:                                                ; preds = %0
  br i1 false, label %11, label %10

10:                                               ; preds = %9, %6
  call void @ERR_new()
  call void @ERR_set_debug(ptr noundef @.str, i32 noundef 33, ptr noundef @__func__.ENGINE_new)
  call void (i32, i32, ptr, ...) @ERR_set_error(i32 noundef 38, i32 noundef 524303, ptr noundef null)
  store ptr null, ptr %1, align 8
  store i32 1, ptr %3, align 4
  br label %34

11:                                               ; preds = %9, %6
  %12 = call noalias ptr @CRYPTO_zalloc(i64 noundef 224, ptr noundef @.str, i32 noundef 36)
  store ptr %12, ptr %2, align 8, !tbaa !9
  %13 = icmp eq ptr %12, null
  br i1 %13, label %14, label %15

14:                                               ; preds = %11
  store ptr null, ptr %1, align 8
  store i32 1, ptr %3, align 4
  br label %34

15:                                               ; preds = %11
  %16 = load ptr, ptr %2, align 8, !tbaa !9
  %17 = getelementptr inbounds nuw %struct.engine_st, ptr %16, i32 0, i32 20
  %18 = call i32 @CRYPTO_NEW_REF(ptr noundef %17, i32 noundef 1)
  %19 = icmp ne i32 %18, 0
  br i1 %19, label %22, label %20

20:                                               ; preds = %15
  %21 = load ptr, ptr %2, align 8, !tbaa !9
  call void @CRYPTO_free(ptr noundef %21, ptr noundef @.str, i32 noundef 39)
  store ptr null, ptr %1, align 8
  store i32 1, ptr %3, align 4
  br label %34

22:                                               ; preds = %15
  %23 = load ptr, ptr %2, align 8, !tbaa !9
  %24 = load ptr, ptr %2, align 8, !tbaa !9
  %25 = getelementptr inbounds nuw %struct.engine_st, ptr %24, i32 0, i32 22
  %26 = call i32 @CRYPTO_new_ex_data(i32 noundef 10, ptr noundef %23, ptr noundef %25)
  %27 = icmp ne i32 %26, 0
  br i1 %27, label %32, label %28

28:                                               ; preds = %22
  %29 = load ptr, ptr %2, align 8, !tbaa !9
  %30 = getelementptr inbounds nuw %struct.engine_st, ptr %29, i32 0, i32 20
  call void @CRYPTO_FREE_REF(ptr noundef %30)
  %31 = load ptr, ptr %2, align 8, !tbaa !9
  call void @CRYPTO_free(ptr noundef %31, ptr noundef @.str, i32 noundef 45)
  store ptr null, ptr %1, align 8
  store i32 1, ptr %3, align 4
  br label %34

32:                                               ; preds = %22
  %33 = load ptr, ptr %2, align 8, !tbaa !9
  store ptr %33, ptr %1, align 8
  store i32 1, ptr %3, align 4
  br label %34

34:                                               ; preds = %32, %28, %20, %14, %10
  call void @llvm.lifetime.end.p0(i64 8, ptr %2) #4
  %35 = load ptr, ptr %1, align 8
  ret ptr %35
}