; Function Attrs: nounwind uwtable
define ptr @ENGINE_new() local_unnamed_addr #0 {
  %1 = tail call i32 @CRYPTO_THREAD_run_once(ptr noundef nonnull @engine_lock_init, ptr noundef nonnull @do_engine_lock_init_ossl_) #6
  %2 = icmp ne i32 %1, 0
  %3 = load i32, ptr @do_engine_lock_init_ossl_ret_, align 4
  %4 = icmp ne i32 %3, 0
  %or.cond = select i1 %2, i1 %4, i1 false
  br i1 %or.cond, label %6, label %5

5:                                                ; preds = %0
  tail call void @ERR_new() #6
  tail call void @ERR_set_debug(ptr noundef nonnull @.str, i32 noundef 33, ptr noundef nonnull @__func__.ENGINE_new) #6
  tail call void (i32, i32, ptr, ...) @ERR_set_error(i32 noundef 38, i32 noundef 524303, ptr noundef null) #6
  br label %14

6:                                                ; preds = %0
  %7 = tail call noalias ptr @CRYPTO_zalloc(i64 noundef 224, ptr noundef nonnull @.str, i32 noundef 36) #6
  %8 = icmp eq ptr %7, null
  br i1 %8, label %14, label %9

9:                                                ; preds = %6
  %10 = getelementptr inbounds nuw i8, ptr %7, i64 156
  store atomic i32 1, ptr %10 seq_cst, align 4, !tbaa !9
  %11 = getelementptr inbounds nuw i8, ptr %7, i64 168
  %12 = tail call i32 @CRYPTO_new_ex_data(i32 noundef 10, ptr noundef nonnull %7, ptr noundef nonnull %11) #6
  %.not = icmp eq i32 %12, 0
  br i1 %.not, label %13, label %14

13:                                               ; preds = %9
  tail call void @CRYPTO_free(ptr noundef nonnull %7, ptr noundef nonnull @.str, i32 noundef 45) #6
  br label %14

14:                                               ; preds = %9, %6, %13, %5
  %.0 = phi ptr [ null, %13 ], [ null, %5 ], [ null, %6 ], [ %7, %9 ]
  ret ptr %.0
}